target datalayout = "e-m:e-p270:32:32-p271:32:32-p272:64:64-i64:64-i128:128-f80:128-n8:16:32:64-S128"
target triple = "x86_64-pc-linux-gnu"

@_ZN12_GLOBAL__N_114gMinCorrectionE = internal global i32 0, align 4

; Function Attrs: mustprogress uwtable
define noundef signext i8 @_ZN6icu_7715PersianCalendar10isLeapYearEi(i32 noundef %0) #1 align 2 {
  %2 = alloca i8, align 1
  %3 = alloca i32, align 4
  %4 = alloca i64, align 8
  %5 = alloca i8, align 1
  store i32 %0, ptr %3, align 4, !tbaa !17
  %6 = load i32, ptr %3, align 4, !tbaa !17
  %7 = load i32, ptr @_ZN12_GLOBAL__N_114gMinCorrectionE, align 4, !tbaa !17
  %8 = icmp sge i32 %6, %7
  br i1 %8, label %9, label %15

9:                                                ; preds = %1
  %10 = call noundef ptr @_ZN12_GLOBAL__N_117getLeapCorrectionEv()
  %11 = load i32, ptr %3, align 4, !tbaa !17
  %12 = call noundef signext i8 @_ZNK6icu_7710UnicodeSet8containsEi(ptr noundef nonnull align 8 dereferenceable(200) %10, i32 noundef %11)
  %13 = icmp ne i8 %12, 0
  br i1 %13, label %14, label %15

14:                                               ; preds = %9
  store i8 0, ptr %2, align 1
  br label %38

15:                                               ; preds = %9, %1
  %16 = load i32, ptr %3, align 4, !tbaa !17
  %17 = load i32, ptr @_ZN12_GLOBAL__N_114gMinCorrectionE, align 4, !tbaa !17
  %18 = icmp sgt i32 %16, %17
  br i1 %18, label %19, label %26

19:                                               ; preds = %15
  %20 = call noundef ptr @_ZN12_GLOBAL__N_117getLeapCorrectionEv()
  %21 = load i32, ptr %3, align 4, !tbaa !17
  %22 = sub nsw i32 %21, 1
  %23 = call noundef signext i8 @_ZNK6icu_7710UnicodeSet8containsEi(ptr noundef nonnull align 8 dereferenceable(200) %20, i32 noundef %22)
  %24 = icmp ne i8 %23, 0
  br i1 %24, label %25, label %26

25:                                               ; preds = %19
  store i8 1, ptr %2, align 1
  br label %38

26:                                               ; preds = %19, %15
  call void @llvm.lifetime.start.p0(i64 8, ptr %4) #9
  %27 = load i32, ptr %3, align 4, !tbaa !17
  %28 = sext i32 %27 to i64
  %29 = mul nsw i64 %28, 25
  %30 = add nsw i64 %29, 11
  store i64 %30, ptr %4, align 8, !tbaa !19
  call void @llvm.lifetime.start.p0(i64 1, ptr %5) #9
  %31 = load i64, ptr %4, align 8, !tbaa !19
  %32 = srem i64 %31, 33
  %33 = icmp slt i64 %32, 8
  %34 = zext i1 %33 to i8
  store i8 %34, ptr %5, align 1, !tbaa !21
  %35 = load i8, ptr %5, align 1, !tbaa !21, !range !23, !noundef !24
  %36 = trunc i8 %35 to i1
  %37 = zext i1 %36 to i8
  store i8 %37, ptr %2, align 1
  call void @llvm.lifetime.end.p0(i64 1, ptr %5) #9
  call void @llvm.lifetime.end.p0(i64 8, ptr %4) #9
  br label %38

38:                                               ; preds = %26, %25, %14
  %39 = load i8, ptr %2, align 1
  ret i8 %39
}

; Function Attrs: inlinehint mustprogress nounwind uwtable
define internal noundef signext i8 @_ZL9U_FAILURE10UErrorCode(i32 noundef %0) #5 {
  %2 = alloca i32, align 4
  store i32 %0, ptr %2, align 4, !tbaa !28
  %3 = load i32, ptr %2, align 4, !tbaa !28
  %4 = icmp sgt i32 %3, 0
  %5 = zext i1 %4 to i8
  ret i8 %5
}

; Function Attrs: mustprogress uwtable
define noundef i32 @_ZNK6icu_7715PersianCalendar19handleGetYearLengthEiR10UErrorCode(ptr noundef nonnull align 8 dereferenceable(192) %0, i32 noundef %1, ptr noundef nonnull align 4 dereferenceable(4) %2) unnamed_addr #1 align 2 {
  %4 = alloca i32, align 4
  %5 = alloca ptr, align 8
  %6 = alloca i32, align 4
  %7 = alloca ptr, align 8
  store ptr %0, ptr %5, align 8, !tbaa !3
  store i32 %1, ptr %6, align 4, !tbaa !17
  store ptr %2, ptr %7, align 8, !tbaa !10
  %8 = load ptr, ptr %7, align 8, !tbaa !10
  %9 = load i32, ptr %8, align 4, !tbaa !28
  %10 = call noundef signext i8 @_ZL9U_FAILURE10UErrorCode(i32 noundef %9)
  %11 = icmp ne i8 %10, 0
  br i1 %11, label %12, label %13

12:                                               ; preds = %3
  store i32 0, ptr %4, align 4
  br label %18

13:                                               ; preds = %3
  %14 = load i32, ptr %6, align 4, !tbaa !17
  %15 = call noundef signext i8 @_ZN6icu_7715PersianCalendar10isLeapYearEi(i32 noundef %14)
  %16 = icmp ne i8 %15, 0
  %17 = select i1 %16, i32 366, i32 365
  store i32 %17, ptr %4, align 4
  br label %18

18:                                               ; preds = %13, %12
  %19 = load i32, ptr %4, align 4
  ret i32 %19
}