; Function Attrs: mustprogress uwtable
define noundef range(i32 0, 367) i32 @_ZNK6icu_7715PersianCalendar19handleGetYearLengthEiR10UErrorCode(ptr nonnull readnone align 8 captures(none) %0, i32 noundef %1, ptr noundef nonnull readonly align 4 captures(none) dereferenceable(4) %2) unnamed_addr #1 align 2 {
  %4 = load i32, ptr %2, align 4, !tbaa !15
  %5 = icmp slt i32 %4, 1
  br i1 %5, label %6, label %_ZN6icu_7715PersianCalendar10isLeapYearEi.exit.thread6

6:                                                ; preds = %3
  %.b = load i1, ptr @_ZN12_GLOBAL__N_114gMinCorrectionE, align 4
  %7 = select i1 %.b, i32 1502, i32 0
  %.not.i = icmp slt i32 %1, %7
  br i1 %.not.i, label %11, label %8

8:                                                ; preds = %6
  %9 = tail call fastcc noundef ptr @_ZN12_GLOBAL__N_117getLeapCorrectionEv()
  %10 = tail call noundef signext i8 @_ZNK6icu_7710UnicodeSet8containsEi(ptr noundef nonnull align 8 dereferenceable(200) %9, i32 noundef %1)
  %.not9.i = icmp eq i8 %10, 0
  br i1 %.not9.i, label %._crit_edge.i, label %_ZN6icu_7715PersianCalendar10isLeapYearEi.exit.thread

._crit_edge.i:                                    ; preds = %8
  %.pre.i.b = load i1, ptr @_ZN12_GLOBAL__N_114gMinCorrectionE, align 4
  %.pre.i = select i1 %.pre.i.b, i32 1502, i32 0
  br label %11

11:                                               ; preds = %._crit_edge.i, %6
  %12 = phi i32 [ %.pre.i, %._crit_edge.i ], [ %7, %6 ]
  %13 = icmp sgt i32 %1, %12
  br i1 %13, label %14, label %_ZN6icu_7715PersianCalendar10isLeapYearEi.exit

14:                                               ; preds = %11
  %15 = tail call fastcc noundef ptr @_ZN12_GLOBAL__N_117getLeapCorrectionEv()
  %16 = add nsw i32 %1, -1
  %17 = tail call noundef signext i8 @_ZNK6icu_7710UnicodeSet8containsEi(ptr noundef nonnull align 8 dereferenceable(200) %15, i32 noundef %16)
  %.not10.i = icmp eq i8 %17, 0
  br i1 %.not10.i, label %_ZN6icu_7715PersianCalendar10isLeapYearEi.exit, label %_ZN6icu_7715PersianCalendar10isLeapYearEi.exit.thread6

_ZN6icu_7715PersianCalendar10isLeapYearEi.exit:   ; preds = %11, %14
  %18 = sext i32 %1 to i64
  %19 = mul nsw i64 %18, 25
  %20 = add nsw i64 %19, 11
  %21 = srem i64 %20, 33
  %22 = icmp sgt i64 %21, 7
  br i1 %22, label %_ZN6icu_7715PersianCalendar10isLeapYearEi.exit.thread, label %_ZN6icu_7715PersianCalendar10isLeapYearEi.exit.thread6

_ZN6icu_7715PersianCalendar10isLeapYearEi.exit.thread: ; preds = %8, %_ZN6icu_7715PersianCalendar10isLeapYearEi.exit
  br label %_ZN6icu_7715PersianCalendar10isLeapYearEi.exit.thread6

_ZN6icu_7715PersianCalendar10isLeapYearEi.exit.thread6: ; preds = %14, %_ZN6icu_7715PersianCalendar10isLeapYearEi.exit.thread, %_ZN6icu_7715PersianCalendar10isLeapYearEi.exit, %3
  %.0 = phi i32 [ 0, %3 ], [ 365, %_ZN6icu_7715PersianCalendar10isLeapYearEi.exit.thread ], [ 366, %_ZN6icu_7715PersianCalendar10isLeapYearEi.exit ], [ 366, %14 ]
  ret i32 %.0
}